target datalayout = "e-m:e-p270:32:32-p271:32:32-p272:64:64-i64:64-i128:128-f80:128-n8:16:32:64-S128"
target triple = "x86_64-pc-linux-gnu"

%struct._lv_image_decoder_dsc_t = type { ptr, %struct._lv_image_decoder_args_t, ptr, i32, %struct.lv_fs_file_t, %struct.lv_image_header_t, ptr, ptr, i32, i32, ptr, ptr, ptr, ptr }
%struct._lv_image_decoder_args_t = type { i8, i8, i8, i8, i8 }
%struct.lv_fs_file_t = type { ptr, ptr, ptr }
%struct.lv_image_header_t = type <{ i64, i32 }>
%struct.decoder_data_t = type { ptr, ptr, ptr, %struct._lv_image_compressed_t, ptr, ptr, %struct._lv_draw_buf_t, ptr }
%struct._lv_image_compressed_t = type { i32, i32, i32, ptr }
%struct._lv_draw_buf_t = type { %struct.lv_image_header_t, i32, ptr, ptr, ptr }

; Function Attrs: nounwind uwtable
define internal void @free_decoder_data(ptr noundef %0) #0 {
  %2 = alloca ptr, align 8
  %3 = alloca ptr, align 8
  %4 = alloca i32, align 4
  store ptr %0, ptr %2, align 8, !tbaa !11
  call void @llvm.lifetime.start.p0(i64 8, ptr %3) #5
  %5 = load ptr, ptr %2, align 8, !tbaa !11
  %6 = getelementptr inbounds nuw %struct._lv_image_decoder_dsc_t, ptr %5, i32 0, i32 13
  %7 = load ptr, ptr %6, align 8, !tbaa !29
  store ptr %7, ptr %3, align 8, !tbaa !13
  %8 = load ptr, ptr %3, align 8, !tbaa !13
  %9 = icmp eq ptr %8, null
  br i1 %9, label %10, label %11

10:                                               ; preds = %1
  store i32 1, ptr %4, align 4
  br label %49

11:                                               ; preds = %1
  %12 = load ptr, ptr %3, align 8, !tbaa !13
  %13 = getelementptr inbounds nuw %struct.decoder_data_t, ptr %12, i32 0, i32 0
  %14 = load ptr, ptr %13, align 8, !tbaa !30
  %15 = icmp ne ptr %14, null
  br i1 %15, label %16, label %24

16:                                               ; preds = %11
  %17 = load ptr, ptr %3, align 8, !tbaa !13
  %18 = getelementptr inbounds nuw %struct.decoder_data_t, ptr %17, i32 0, i32 0
  %19 = load ptr, ptr %18, align 8, !tbaa !30
  %20 = call i32 @lv_fs_close(ptr noundef %19)
  %21 = load ptr, ptr %3, align 8, !tbaa !13
  %22 = getelementptr inbounds nuw %struct.decoder_data_t, ptr %21, i32 0, i32 0
  %23 = load ptr, ptr %22, align 8, !tbaa !30
  call void @lv_free(ptr noundef %23)
  br label %24

24:                                               ; preds = %16, %11
  %25 = load ptr, ptr %3, align 8, !tbaa !13
  %26 = getelementptr inbounds nuw %struct.decoder_data_t, ptr %25, i32 0, i32 4
  %27 = load ptr, ptr %26, align 8, !tbaa !45
  %28 = icmp ne ptr %27, null
  br i1 %28, label %29, label %33

29:                                               ; preds = %24
  %30 = load ptr, ptr %3, align 8, !tbaa !13
  %31 = getelementptr inbounds nuw %struct.decoder_data_t, ptr %30, i32 0, i32 4
  %32 = load ptr, ptr %31, align 8, !tbaa !45
  call void @lv_draw_buf_destroy(ptr noundef %32)
  br label %33

33:                                               ; preds = %29, %24
  %34 = load ptr, ptr %3, align 8, !tbaa !13
  %35 = getelementptr inbounds nuw %struct.decoder_data_t, ptr %34, i32 0, i32 5
  %36 = load ptr, ptr %35, align 8, !tbaa !65
  %37 = icmp ne ptr %36, null
  br i1 %37, label %38, label %42

38:                                               ; preds = %33
  %39 = load ptr, ptr %3, align 8, !tbaa !13
  %40 = getelementptr inbounds nuw %struct.decoder_data_t, ptr %39, i32 0, i32 5
  %41 = load ptr, ptr %40, align 8, !tbaa !65
  call void @lv_draw_buf_destroy(ptr noundef %41)
  br label %42

42:                                               ; preds = %38, %33
  %43 = load ptr, ptr %3, align 8, !tbaa !13
  %44 = getelementptr inbounds nuw %struct.decoder_data_t, ptr %43, i32 0, i32 1
  %45 = load ptr, ptr %44, align 8, !tbaa !66
  call void @lv_free(ptr noundef %45)
  %46 = load ptr, ptr %3, align 8, !tbaa !13
  call void @lv_free(ptr noundef %46)
  %47 = load ptr, ptr %2, align 8, !tbaa !11
  %48 = getelementptr inbounds nuw %struct._lv_image_decoder_dsc_t, ptr %47, i32 0, i32 13
  store ptr null, ptr %48, align 8, !tbaa !29
  store i32 0, ptr %4, align 4
  br label %49

49:                                               ; preds = %42, %10
  call void @llvm.lifetime.end.p0(i64 8, ptr %3) #5
  %50 = load i32, ptr %4, align 4
  switch i32 %50, label %52 [
    i32 0, label %51
    i32 1, label %51
  ]

51:                                               ; preds = %49, %49
  ret void

52:                                               ; preds = %49
  unreachable
}