; Function Attrs: nounwind uwtable
define internal fastcc void @free_decoder_data(ptr noundef captures(none) %0) unnamed_addr #0 {
  %2 = getelementptr inbounds nuw i8, ptr %0, i64 120
  %3 = load ptr, ptr %2, align 8, !tbaa !23
  %4 = icmp eq ptr %3, null
  br i1 %4, label %21, label %5

5:                                                ; preds = %1
  %6 = load ptr, ptr %3, align 8, !tbaa !24
  %.not = icmp eq ptr %6, null
  br i1 %.not, label %10, label %7

7:                                                ; preds = %5
  %8 = tail call i32 @lv_fs_close(ptr noundef nonnull %6) #4
  %9 = load ptr, ptr %3, align 8, !tbaa !24
  tail call void @lv_free(ptr noundef %9) #4
  br label %10

10:                                               ; preds = %7, %5
  %11 = getelementptr inbounds nuw i8, ptr %3, i64 48
  %12 = load ptr, ptr %11, align 8, !tbaa !40
  %.not15 = icmp eq ptr %12, null
  br i1 %.not15, label %14, label %13

13:                                               ; preds = %10
  tail call void @lv_draw_buf_destroy(ptr noundef nonnull %12) #4
  br label %14

14:                                               ; preds = %13, %10
  %15 = getelementptr inbounds nuw i8, ptr %3, i64 56
  %16 = load ptr, ptr %15, align 8, !tbaa !61
  %.not16 = icmp eq ptr %16, null
  br i1 %.not16, label %18, label %17

17:                                               ; preds = %14
  tail call void @lv_draw_buf_destroy(ptr noundef nonnull %16) #4
  br label %18

18:                                               ; preds = %17, %14
  %19 = getelementptr inbounds nuw i8, ptr %3, i64 8
  %20 = load ptr, ptr %19, align 8, !tbaa !62
  tail call void @lv_free(ptr noundef %20) #4
  tail call void @lv_free(ptr noundef nonnull %3) #4
  store ptr null, ptr %2, align 8, !tbaa !23
  br label %21

21:                                               ; preds = %1, %18
  ret void
}